; Function Attrs: mustprogress uwtable
define hidden void @_ZN2pb6solver16convert_to_wlitsEP3appRK7svectorIN3sat7literalEjERS3_ISt4pairIjS5_EjE(ptr noundef nonnull align 8 dereferenceable(1049) %0, ptr noundef readonly captures(none) %1, ptr noundef nonnull readonly align 8 captures(none) dereferenceable(8) %2, ptr noundef nonnull align 8 dereferenceable(8) %3) local_unnamed_addr #3 align 2 personality ptr @__gxx_personality_v0 {
  %5 = alloca %class.rational, align 8
  %6 = getelementptr inbounds nuw i8, ptr %0, i64 96
  %7 = getelementptr inbounds nuw i8, ptr %1, i64 16
  %8 = getelementptr inbounds nuw i8, ptr %5, i64 16
  br label %9

9:                                                ; preds = %_ZN8rationalD2Ev.exit, %4
  %indvars.iv = phi i64 [ %indvars.iv.next, %_ZN8rationalD2Ev.exit ], [ 0, %4 ]
  %10 = load ptr, ptr %2, align 8, !tbaa !99
  %11 = icmp eq ptr %10, null
  br i1 %11, label %_ZNK6vectorIN3sat7literalELb0EjE4sizeEv.exit, label %12

12:                                               ; preds = %9
  %13 = getelementptr inbounds i8, ptr %10, i64 -4
  %14 = load i32, ptr %13, align 4, !tbaa !103
  %15 = zext i32 %14 to i64
  br label %_ZNK6vectorIN3sat7literalELb0EjE4sizeEv.exit

_ZNK6vectorIN3sat7literalELb0EjE4sizeEv.exit:     ; preds = %9, %12
  %.0.i = phi i64 [ %15, %12 ], [ 0, %9 ]
  %16 = icmp samesign ult i64 %indvars.iv, %.0.i
  br i1 %16, label %18, label %17

17:                                               ; preds = %_ZNK6vectorIN3sat7literalELb0EjE4sizeEv.exit
  ret void

18:                                               ; preds = %_ZNK6vectorIN3sat7literalELb0EjE4sizeEv.exit
  call void @llvm.lifetime.start.p0(i64 32, ptr nonnull %5) #18
  %19 = load ptr, ptr %7, align 8, !tbaa !6, !noalias !283
  %20 = trunc nuw i64 %indvars.iv to i32
  call void @_ZNK7pb_util9get_coeffEP9func_declj(ptr dead_on_unwind nonnull writable sret(%class.rational) align 8 %5, ptr noundef nonnull align 8 dereferenceable(64) %6, ptr noundef %19, i32 noundef %20)
  invoke void @_ZN2pb6solver14check_unsignedERK8rational(ptr nonnull align 8 poison, ptr noundef nonnull align 8 dereferenceable(32) %5)
          to label %21 unwind label %50

21:                                               ; preds = %18
  %22 = load ptr, ptr @_ZN8rational13g_mpq_managerE, align 8, !tbaa !97
  %23 = invoke noundef i64 @_ZNK11mpz_managerILb1EE10get_uint64ERK3mpz(ptr noundef nonnull align 8 dereferenceable(728) %22, ptr noundef nonnull align 8 dereferenceable(32) %5)
          to label %24 unwind label %52

24:                                               ; preds = %21
  %25 = load ptr, ptr %2, align 8, !tbaa !99
  %26 = getelementptr inbounds nuw %"class.sat::literal", ptr %25, i64 %indvars.iv
  %27 = load i32, ptr %26, align 4, !tbaa !103
  %.sroa.2.0.insert.ext.i = zext i32 %27 to i64
  %.sroa.2.0.insert.shift.i = shl nuw i64 %.sroa.2.0.insert.ext.i, 32
  %.sroa.0.0.insert.ext.i = and i64 %23, 4294967295
  %.sroa.0.0.insert.insert.i = or disjoint i64 %.sroa.2.0.insert.shift.i, %.sroa.0.0.insert.ext.i
  %28 = load ptr, ptr %3, align 8, !tbaa !109
  %29 = icmp eq ptr %28, null
  br i1 %29, label %36, label %30

30:                                               ; preds = %24
  %31 = getelementptr inbounds i8, ptr %28, i64 -4
  %32 = load i32, ptr %31, align 4, !tbaa !103
  %33 = getelementptr inbounds i8, ptr %28, i64 -8
  %34 = load i32, ptr %33, align 4, !tbaa !103
  %35 = icmp eq i32 %32, %34
  br i1 %35, label %36, label %37

36:                                               ; preds = %30, %24
  invoke void @_ZN6vectorISt4pairIjN3sat7literalEELb0EjE13expand_vectorEv(ptr noundef nonnull align 8 dereferenceable(8) %3)
          to label %.noexc unwind label %52

.noexc:                                           ; preds = %36
  %.pre.i = load ptr, ptr %3, align 8, !tbaa !109
  %.phi.trans.insert.i = getelementptr inbounds i8, ptr %.pre.i, i64 -4
  %.pre2.i = load i32, ptr %.phi.trans.insert.i, align 4, !tbaa !103
  br label %37

37:                                               ; preds = %.noexc, %30
  %38 = phi i32 [ %.pre2.i, %.noexc ], [ %32, %30 ]
  %39 = phi ptr [ %.pre.i, %.noexc ], [ %28, %30 ]
  %40 = zext i32 %38 to i64
  %41 = getelementptr inbounds nuw %"struct.std::pair", ptr %39, i64 %40
  store i64 %.sroa.0.0.insert.insert.i, ptr %41, align 4
  %42 = load ptr, ptr %3, align 8, !tbaa !109
  %43 = getelementptr inbounds i8, ptr %42, i64 -4
  %44 = load i32, ptr %43, align 4, !tbaa !103
  %45 = add i32 %44, 1
  store i32 %45, ptr %43, align 4, !tbaa !103
  %46 = load ptr, ptr @_ZN8rational13g_mpq_managerE, align 8, !tbaa !97
  invoke void @_ZN11mpz_managerILb1EE3delEPS0_R3mpz(ptr noundef %46, ptr noundef nonnull align 8 dereferenceable(32) %5)
          to label %.noexc.i unwind label %47

.noexc.i:                                         ; preds = %37
  invoke void @_ZN11mpz_managerILb1EE3delEPS0_R3mpz(ptr noundef %46, ptr noundef nonnull align 8 dereferenceable(16) %8)
          to label %_ZN8rationalD2Ev.exit unwind label %47

47:                                               ; preds = %.noexc.i, %37
  %48 = landingpad { ptr, i32 }
          catch ptr null
  %49 = extractvalue { ptr, i32 } %48, 0
  call void @__clang_call_terminate(ptr %49) #19
  unreachable

_ZN8rationalD2Ev.exit:                            ; preds = %.noexc.i
  call void @llvm.lifetime.end.p0(i64 32, ptr nonnull %5) #18
  %indvars.iv.next = add nuw nsw i64 %indvars.iv, 1
  br label %9, !llvm.loop !286

50:                                               ; preds = %18
  %51 = landingpad { ptr, i32 }
          cleanup
  br label %54

52:                                               ; preds = %36, %21
  %53 = landingpad { ptr, i32 }
          cleanup
  br label %54

54:                                               ; preds = %52, %50
  %.pn = phi { ptr, i32 } [ %53, %52 ], [ %51, %50 ]
  call void @_ZN8rationalD2Ev(ptr noundef nonnull align 8 dereferenceable(32) %5) #18
  call void @llvm.lifetime.end.p0(i64 32, ptr nonnull %5) #18
  resume { ptr, i32 } %.pn
}